target datalayout = "e-m:e-p270:32:32-p271:32:32-p272:64:64-i64:64-i128:128-f80:128-n8:16:32:64-S128"
target triple = "x86_64-unknown-linux-gnu"

%"class.ue2::ComponentAssertion" = type { %"class.ue2::ComponentSequence", i32, i32 }
%"class.ue2::ComponentSequence" = type { %"class.ue2::Component", %"class.std::vector", %"class.std::unique_ptr", i32, %"class.std::__cxx11::basic_string" }
%"class.ue2::Component" = type { ptr, i32, i32 }
%"class.std::vector" = type { %"struct.std::_Vector_base" }
%"struct.std::_Vector_base" = type { %"struct.std::_Vector_base<std::unique_ptr<ue2::Component>, std::allocator<std::unique_ptr<ue2::Component>>>::_Vector_impl" }
%"struct.std::_Vector_base<std::unique_ptr<ue2::Component>, std::allocator<std::unique_ptr<ue2::Component>>>::_Vector_impl" = type { %"struct.std::_Vector_base<std::unique_ptr<ue2::Component>, std::allocator<std::unique_ptr<ue2::Component>>>::_Vector_impl_data" }
%"struct.std::_Vector_base<std::unique_ptr<ue2::Component>, std::allocator<std::unique_ptr<ue2::Component>>>::_Vector_impl_data" = type { ptr, ptr, ptr }
%"class.std::unique_ptr" = type { %"struct.std::__uniq_ptr_data" }
%"struct.std::__uniq_ptr_data" = type { %"class.std::__uniq_ptr_impl" }
%"class.std::__uniq_ptr_impl" = type { %"class.std::tuple" }
%"class.std::tuple" = type { %"struct.std::_Tuple_impl" }
%"struct.std::_Tuple_impl" = type { %"struct.std::_Head_base.1" }
%"struct.std::_Head_base.1" = type { ptr }
%"class.std::__cxx11::basic_string" = type { %"struct.std::__cxx11::basic_string<char>::_Alloc_hider", i64, %union.anon }
%"struct.std::__cxx11::basic_string<char>::_Alloc_hider" = type { ptr }
%union.anon = type { i64, [8 x i8] }

; Function Attrs: mustprogress uwtable
define hidden void @_ZN3ue218ComponentAssertionC2ENS0_9DirectionENS0_5SenseE(ptr noundef nonnull align 8 dereferenceable(96) %this, i32 noundef %dir, i32 noundef %sense) unnamed_addr #0 align 2 {
entry:
  %this.addr = alloca ptr, align 8
  %dir.addr = alloca i32, align 4
  %sense.addr = alloca i32, align 4
  store ptr %this, ptr %this.addr, align 8
  store i32 %dir, ptr %dir.addr, align 4
  store i32 %sense, ptr %sense.addr, align 4
  %this1 = load ptr, ptr %this.addr, align 8
  call void @_ZN3ue217ComponentSequenceC2Ev(ptr noundef nonnull align 8 dereferenceable(88) %this1)
  store ptr getelementptr inbounds ({ [20 x ptr] }, ptr @_ZTVN3ue218ComponentAssertionE, i32 0, i32 0, i32 2), ptr %this1, align 8
  %m_dir = getelementptr inbounds %"class.ue2::ComponentAssertion", ptr %this1, i32 0, i32 1
  %0 = load i32, ptr %dir.addr, align 4
  store i32 %0, ptr %m_dir, align 8
  %m_sense = getelementptr inbounds %"class.ue2::ComponentAssertion", ptr %this1, i32 0, i32 2
  %1 = load i32, ptr %sense.addr, align 4
  store i32 %1, ptr %m_sense, align 4
  ret void
}